target datalayout = "e-m:e-p270:32:32-p271:32:32-p272:64:64-i64:64-i128:128-f80:128-n8:16:32:64-S128"
target triple = "x86_64-pc-linux-gnu"

%struct.WOLFSSL = type <{ ptr, ptr, ptr, ptr, [48 x i8], [48 x i8], ptr, ptr, ptr, ptr, ptr, ptr, ptr, ptr, ptr, ptr, ptr, ptr, ptr, i32, [4 x i8], %struct.WOLFSSL_CIPHER, ptr, %struct.Ciphers, %struct.Ciphers, [8 x i8], %struct.Buffers, ptr, ptr, %struct.WOLFSSL_ALERT_HISTORY, %struct.WOLFSSL_ALERT, i32, i32, i32, i32, i32, i32, i32, i16, [2 x i8], i32, i8, %struct.RecordLayerHeader, %struct.MsgsReceived, %struct.ProtocolVersion, %struct.ProtocolVersion, %struct.CipherSpecs, [2 x i8], %struct.Keys, %struct.Options, ptr, i8, i8, i16, [10 x i16], i8, i8, i16, i16, [38 x i8], i32, i32, [4 x i8], ptr, i8, i8, [6 x i8], ptr, ptr, i16, i8, i8, i32, i8, [3 x i8], i32, %struct.OneTimeAuth, ptr }>
%struct.WOLFSSL_CIPHER = type { i8, i8, ptr }
%struct.Ciphers = type { ptr, ptr, ptr, ptr, i8, i8 }
%struct.Buffers = type { %struct.bufferStatic, %struct.bufferStatic, %struct.WOLFSSL_BUFFER_INFO, %struct.WOLFSSL_BUFFER_INFO, %struct.WOLFSSL_BUFFER_INFO, %struct.WOLFSSL_BUFFER_INFO, i32, i32, i8, i8, i8, i8, %struct.WOLFSSL_BUFFER_INFO, %struct.WOLFSSL_BUFFER_INFO, %struct.WOLFSSL_BUFFER_INFO, %struct.WOLFSSL_BUFFER_INFO, ptr, ptr, ptr, i8, i8, i32, i32, ptr, i32, [1 x ptr] }
%struct.bufferStatic = type { [5 x i8], ptr, i32, i32, i32, i8, i8 }
%struct.WOLFSSL_BUFFER_INFO = type { ptr, i32 }
%struct.WOLFSSL_ALERT_HISTORY = type { %struct.WOLFSSL_ALERT, %struct.WOLFSSL_ALERT }
%struct.WOLFSSL_ALERT = type { i32, i32 }
%struct.RecordLayerHeader = type { i8, i8, i8, [2 x i8] }
%struct.MsgsReceived = type { i32 }
%struct.ProtocolVersion = type { i8, i8 }
%struct.CipherSpecs = type { i16, i16, i16, i16, i8, i8, i8, i8, i8, i8, i8, i8 }
%struct.Keys = type { [64 x i8], [64 x i8], [32 x i8], [32 x i8], [16 x i8], [16 x i8], [8 x i8], [12 x i8], [12 x i8], i32, i32, i32, i32, i32, i32, i8, i8, i8, i8 }
%struct.Options = type { i64, i64, i8, i8, i8, i8, i8, i8, i8, i8, i8, i8, i8, i8, i8, i8, i8, i8, i8, i8, i8, i8, i8, i16, i16, i16, i16, i16, i8 }
%struct.OneTimeAuth = type { ptr, i8 }

; Function Attrs: inlinehint nounwind uwtable
define internal void @ctMaskCopy(i8 noundef zeroext %0, ptr noundef %1, ptr noundef %2, i16 noundef zeroext %3) #5 {
  %5 = alloca i8, align 1
  %6 = alloca ptr, align 8
  %7 = alloca ptr, align 8
  %8 = alloca i16, align 2
  %9 = alloca i32, align 4
  store i8 %0, ptr %5, align 1, !tbaa !54
  store ptr %1, ptr %6, align 8, !tbaa !89
  store ptr %2, ptr %7, align 8, !tbaa !89
  store i16 %3, ptr %8, align 2, !tbaa !119
  call void @llvm.lifetime.start.p0(i64 4, ptr %9) #9
  store i32 0, ptr %9, align 4, !tbaa !47
  br label %10

10:                                               ; preds = %40, %4
  %11 = load i32, ptr %9, align 4, !tbaa !47
  %12 = load i16, ptr %8, align 2, !tbaa !119
  %13 = zext i16 %12 to i32
  %14 = icmp slt i32 %11, %13
  br i1 %14, label %15, label %43

15:                                               ; preds = %10
  %16 = load ptr, ptr %6, align 8, !tbaa !89
  %17 = load i32, ptr %9, align 4, !tbaa !47
  %18 = sext i32 %17 to i64
  %19 = getelementptr inbounds i8, ptr %16, i64 %18
  %20 = load i8, ptr %19, align 1, !tbaa !54
  %21 = zext i8 %20 to i32
  %22 = load ptr, ptr %7, align 8, !tbaa !89
  %23 = load i32, ptr %9, align 4, !tbaa !47
  %24 = sext i32 %23 to i64
  %25 = getelementptr inbounds i8, ptr %22, i64 %24
  %26 = load i8, ptr %25, align 1, !tbaa !54
  %27 = zext i8 %26 to i32
  %28 = xor i32 %21, %27
  %29 = load i8, ptr %5, align 1, !tbaa !54
  %30 = zext i8 %29 to i32
  %31 = and i32 %28, %30
  %32 = load ptr, ptr %6, align 8, !tbaa !89
  %33 = load i32, ptr %9, align 4, !tbaa !47
  %34 = sext i32 %33 to i64
  %35 = getelementptr inbounds i8, ptr %32, i64 %34
  %36 = load i8, ptr %35, align 1, !tbaa !54
  %37 = zext i8 %36 to i32
  %38 = xor i32 %37, %31
  %39 = trunc i32 %38 to i8
  store i8 %39, ptr %35, align 1, !tbaa !54
  br label %40

40:                                               ; preds = %15
  %41 = load i32, ptr %9, align 4, !tbaa !47
  %42 = add nsw i32 %41, 1
  store i32 %42, ptr %9, align 4, !tbaa !47
  br label %10, !llvm.loop !152

43:                                               ; preds = %10
  call void @llvm.lifetime.end.p0(i64 4, ptr %9) #9
  ret void
}

; Function Attrs: inlinehint nounwind uwtable
define internal zeroext i8 @ctMaskGT(i32 noundef %0, i32 noundef %1) #5 {
  %3 = alloca i32, align 4
  %4 = alloca i32, align 4
  store i32 %0, ptr %3, align 4, !tbaa !47
  store i32 %1, ptr %4, align 4, !tbaa !47
  %5 = load i32, ptr %3, align 4, !tbaa !47
  %6 = load i32, ptr %4, align 4, !tbaa !47
  %7 = sub i32 %5, %6
  %8 = sub i32 %7, 1
  %9 = lshr i32 %8, 31
  %10 = sub i32 %9, 1
  %11 = trunc i32 %10 to i8
  ret i8 %11
}

; Function Attrs: nounwind uwtable
define i32 @RsaDec(ptr noundef %0, ptr noundef %1, i32 noundef %2, ptr noundef %3, ptr noundef %4, ptr noundef %5, ptr noundef %6) #0 {
  %8 = alloca i32, align 4
  %9 = alloca ptr, align 8
  %10 = alloca ptr, align 8
  %11 = alloca i32, align 4
  %12 = alloca ptr, align 8
  %13 = alloca ptr, align 8
  %14 = alloca ptr, align 8
  %15 = alloca ptr, align 8
  %16 = alloca ptr, align 8
  %17 = alloca i8, align 1
  %18 = alloca i32, align 4
  %19 = alloca i32, align 4
  store ptr %0, ptr %9, align 8, !tbaa !3
  store ptr %1, ptr %10, align 8, !tbaa !89
  store i32 %2, ptr %11, align 4, !tbaa !47
  store ptr %3, ptr %12, align 8, !tbaa !148
  store ptr %4, ptr %13, align 8, !tbaa !143
  store ptr %5, ptr %14, align 8, !tbaa !145
  store ptr %6, ptr %15, align 8, !tbaa !146
  call void @llvm.lifetime.start.p0(i64 8, ptr %16) #9
  call void @llvm.lifetime.start.p0(i64 1, ptr %17) #9
  call void @llvm.lifetime.start.p0(i64 4, ptr %18) #9
  br label %20

20:                                               ; preds = %7
  br label %21

21:                                               ; preds = %20
  br label %22

22:                                               ; preds = %21
  %23 = load ptr, ptr %12, align 8, !tbaa !148
  %24 = load ptr, ptr %23, align 8, !tbaa !89
  store ptr %24, ptr %16, align 8, !tbaa !89
  %25 = load ptr, ptr %14, align 8, !tbaa !145
  %26 = load ptr, ptr %9, align 8, !tbaa !3
  %27 = getelementptr inbounds nuw %struct.WOLFSSL, ptr %26, i32 0, i32 9
  %28 = load ptr, ptr %27, align 8, !tbaa !147
  %29 = call i32 @wc_RsaSetRNG(ptr noundef %25, ptr noundef %28)
  store i32 %29, ptr %18, align 4, !tbaa !47
  %30 = load i32, ptr %18, align 4, !tbaa !47
  %31 = icmp ne i32 %30, 0
  br i1 %31, label %32, label %34

32:                                               ; preds = %22
  %33 = load i32, ptr %18, align 4, !tbaa !47
  store i32 %33, ptr %8, align 4
  store i32 1, ptr %19, align 4
  br label %59

34:                                               ; preds = %22
  %35 = load ptr, ptr %10, align 8, !tbaa !89
  %36 = load i32, ptr %11, align 4, !tbaa !47
  %37 = load ptr, ptr %14, align 8, !tbaa !145
  %38 = call i32 @wc_RsaPrivateDecryptInline(ptr noundef %35, i32 noundef %36, ptr noundef %16, ptr noundef %37)
  store i32 %38, ptr %18, align 4, !tbaa !47
  %39 = load i32, ptr %18, align 4, !tbaa !47
  %40 = call zeroext i8 @ctMaskGT(i32 noundef %39, i32 noundef 0)
  store i8 %40, ptr %17, align 1, !tbaa !54
  %41 = load i32, ptr %18, align 4, !tbaa !47
  %42 = load i8, ptr %17, align 1, !tbaa !54
  %43 = sext i8 %42 to i32
  %44 = and i32 %41, %43
  %45 = load ptr, ptr %13, align 8, !tbaa !143
  store i32 %44, ptr %45, align 4, !tbaa !47
  %46 = load i8, ptr %17, align 1, !tbaa !54
  %47 = zext i8 %46 to i32
  %48 = xor i32 %47, -1
  %49 = trunc i32 %48 to i8
  %50 = sext i8 %49 to i32
  %51 = load i32, ptr %18, align 4, !tbaa !47
  %52 = and i32 %51, %50
  store i32 %52, ptr %18, align 4, !tbaa !47
  %53 = load i8, ptr %17, align 1, !tbaa !54
  %54 = load ptr, ptr %12, align 8, !tbaa !148
  call void @ctMaskCopy(i8 noundef zeroext %53, ptr noundef %54, ptr noundef %16, i16 noundef zeroext 8)
  br label %55

55:                                               ; preds = %34
  br label %56

56:                                               ; preds = %55
  br label %57

57:                                               ; preds = %56
  %58 = load i32, ptr %18, align 4, !tbaa !47
  store i32 %58, ptr %8, align 4
  store i32 1, ptr %19, align 4
  br label %59

59:                                               ; preds = %57, %32
  call void @llvm.lifetime.end.p0(i64 4, ptr %18) #9
  call void @llvm.lifetime.end.p0(i64 1, ptr %17) #9
  call void @llvm.lifetime.end.p0(i64 8, ptr %16) #9
  %60 = load i32, ptr %8, align 4
  ret i32 %60
}