; Function Attrs: nounwind uwtable
define i32 @RsaDec(ptr noundef readonly captures(none) %0, ptr noundef %1, i32 noundef %2, ptr noundef captures(none) %3, ptr noundef writeonly captures(none) %4, ptr noundef %5, ptr noundef readnone captures(none) %6) local_unnamed_addr #5 {
  %8 = alloca ptr, align 8
  call void @llvm.lifetime.start.p0(i64 8, ptr nonnull %8) #26
  %9 = load ptr, ptr %3, align 8, !tbaa !117
  store ptr %9, ptr %8, align 8, !tbaa !117
  %10 = getelementptr inbounds nuw i8, ptr %0, i64 152
  %11 = load ptr, ptr %10, align 8, !tbaa !116
  %12 = tail call i32 @wc_RsaSetRNG(ptr noundef %5, ptr noundef %11) #26
  %.not = icmp eq i32 %12, 0
  br i1 %.not, label %13, label %ctMaskCopy.exit

13:                                               ; preds = %7
  %14 = call i32 @wc_RsaPrivateDecryptInline(ptr noundef %1, i32 noundef %2, ptr noundef nonnull %8, ptr noundef %5) #26
  %15 = add i32 %14, -1
  %16 = lshr i32 %15, 31
  %17 = trunc nuw nsw i32 %16 to i8
  %18 = add nsw i8 %17, -1
  %19 = sext i8 %18 to i32
  %20 = and i32 %14, %19
  store i32 %20, ptr %4, align 4, !tbaa !49
  %isneg = icmp slt i32 %15, 0
  br label %21

21:                                               ; preds = %21, %13
  %indvars.iv.i = phi i64 [ 0, %13 ], [ %indvars.iv.next.i, %21 ]
  %22 = getelementptr inbounds nuw i8, ptr %3, i64 %indvars.iv.i
  %23 = load i8, ptr %22, align 1, !tbaa !45
  %24 = getelementptr inbounds nuw i8, ptr %8, i64 %indvars.iv.i
  %25 = load i8, ptr %24, align 1, !tbaa !45
  %26 = xor i8 %25, %23
  %27 = and i8 %26, %18
  %28 = xor i8 %27, %23
  store i8 %28, ptr %22, align 1, !tbaa !45
  %indvars.iv.next.i = add nuw nsw i64 %indvars.iv.i, 1
  %exitcond.not.i = icmp eq i64 %indvars.iv.next.i, 8
  br i1 %exitcond.not.i, label %ctMaskCopy.exit.loopexit, label %21, !llvm.loop !118

ctMaskCopy.exit.loopexit:                         ; preds = %21
  %29 = select i1 %isneg, i32 %14, i32 0
  br label %ctMaskCopy.exit

ctMaskCopy.exit:                                  ; preds = %ctMaskCopy.exit.loopexit, %7
  %.0 = phi i32 [ %12, %7 ], [ %29, %ctMaskCopy.exit.loopexit ]
  call void @llvm.lifetime.end.p0(i64 8, ptr nonnull %8) #26
  ret i32 %.0
}